; Function Attrs: mustprogress uwtable
define internal noundef ptr @_ZL13aes_ctx_allocv() #0 {
  %1 = tail call noalias dereferenceable_or_null(288) ptr @calloc(i64 noundef 1, i64 noundef 288) #4
  %2 = icmp eq ptr %1, null
  br i1 %2, label %4, label %3

3:                                                ; preds = %0
  tail call void @mbedtls_aes_init(ptr noundef nonnull %1)
  br label %4

4:                                                ; preds = %0, %3
  ret ptr %1
}